target datalayout = "e-m:e-p270:32:32-p271:32:32-p272:64:64-i64:64-i128:128-f80:128-n8:16:32:64-S128"
target triple = "x86_64-pc-linux-gnu"

@l_Lean_Meta_Grind_Arith_Cutsat_propagateIfSupportedLe___lambda__1___closed__2 = internal global ptr null, align 8

; Function Attrs: nounwind uwtable
define ptr @l_Lean_Meta_Grind_Arith_Cutsat_propagateIfSupportedLe___lambda__1(ptr noundef %0, i8 noundef zeroext %1, ptr noundef %2, ptr noundef %3, ptr noundef %4, ptr noundef %5, ptr noundef %6, ptr noundef %7, ptr noundef %8, ptr noundef %9, ptr noundef %10, ptr noundef %11) #2 {
  %13 = alloca ptr, align 8
  %14 = alloca ptr, align 8
  %15 = alloca i8, align 1
  %16 = alloca ptr, align 8
  %17 = alloca ptr, align 8
  %18 = alloca ptr, align 8
  %19 = alloca ptr, align 8
  %20 = alloca ptr, align 8
  %21 = alloca ptr, align 8
  %22 = alloca ptr, align 8
  %23 = alloca ptr, align 8
  %24 = alloca ptr, align 8
  %25 = alloca ptr, align 8
  %26 = alloca ptr, align 8
  %27 = alloca i8, align 1
  %28 = alloca ptr, align 8
  %29 = alloca i32, align 4
  %30 = alloca ptr, align 8
  store ptr %0, ptr %14, align 8, !tbaa !4
  store i8 %1, ptr %15, align 1, !tbaa !10
  store ptr %2, ptr %16, align 8, !tbaa !4
  store ptr %3, ptr %17, align 8, !tbaa !4
  store ptr %4, ptr %18, align 8, !tbaa !4
  store ptr %5, ptr %19, align 8, !tbaa !4
  store ptr %6, ptr %20, align 8, !tbaa !4
  store ptr %7, ptr %21, align 8, !tbaa !4
  store ptr %8, ptr %22, align 8, !tbaa !4
  store ptr %9, ptr %23, align 8, !tbaa !4
  store ptr %10, ptr %24, align 8, !tbaa !4
  store ptr %11, ptr %25, align 8, !tbaa !4
  br label %31

31:                                               ; preds = %12
  call void @llvm.lifetime.start.p0(i64 8, ptr %26) #8
  call void @llvm.lifetime.start.p0(i64 1, ptr %27) #8
  %32 = load ptr, ptr @l_Lean_Meta_Grind_Arith_Cutsat_propagateIfSupportedLe___lambda__1___closed__2, align 8, !tbaa !4
  store ptr %32, ptr %26, align 8, !tbaa !4
  %33 = load ptr, ptr %16, align 8, !tbaa !4
  %34 = load ptr, ptr %26, align 8, !tbaa !4
  %35 = call zeroext i8 @l_Lean_Expr_isConstOf(ptr noundef %33, ptr noundef %34)
  store i8 %35, ptr %27, align 1, !tbaa !10
  %36 = load i8, ptr %27, align 1, !tbaa !10
  %37 = zext i8 %36 to i32
  %38 = icmp eq i32 %37, 0
  br i1 %38, label %39, label %53

39:                                               ; preds = %31
  call void @llvm.lifetime.start.p0(i64 8, ptr %28) #8
  %40 = load ptr, ptr %14, align 8, !tbaa !4
  %41 = load i8, ptr %15, align 1, !tbaa !10
  %42 = load ptr, ptr %17, align 8, !tbaa !4
  %43 = load ptr, ptr %18, align 8, !tbaa !4
  %44 = load ptr, ptr %19, align 8, !tbaa !4
  %45 = load ptr, ptr %20, align 8, !tbaa !4
  %46 = load ptr, ptr %21, align 8, !tbaa !4
  %47 = load ptr, ptr %22, align 8, !tbaa !4
  %48 = load ptr, ptr %23, align 8, !tbaa !4
  %49 = load ptr, ptr %24, align 8, !tbaa !4
  %50 = load ptr, ptr %25, align 8, !tbaa !4
  %51 = call ptr @l_Lean_Meta_Grind_Arith_Cutsat_propagateIntLe(ptr noundef %40, i8 noundef zeroext %41, ptr noundef %42, ptr noundef %43, ptr noundef %44, ptr noundef %45, ptr noundef %46, ptr noundef %47, ptr noundef %48, ptr noundef %49, ptr noundef %50)
  store ptr %51, ptr %28, align 8, !tbaa !4
  %52 = load ptr, ptr %28, align 8, !tbaa !4
  store ptr %52, ptr %13, align 8
  store i32 1, ptr %29, align 4
  call void @llvm.lifetime.end.p0(i64 8, ptr %28) #8
  br label %67

53:                                               ; preds = %31
  call void @llvm.lifetime.start.p0(i64 8, ptr %30) #8
  %54 = load ptr, ptr %14, align 8, !tbaa !4
  %55 = load i8, ptr %15, align 1, !tbaa !10
  %56 = load ptr, ptr %17, align 8, !tbaa !4
  %57 = load ptr, ptr %18, align 8, !tbaa !4
  %58 = load ptr, ptr %19, align 8, !tbaa !4
  %59 = load ptr, ptr %20, align 8, !tbaa !4
  %60 = load ptr, ptr %21, align 8, !tbaa !4
  %61 = load ptr, ptr %22, align 8, !tbaa !4
  %62 = load ptr, ptr %23, align 8, !tbaa !4
  %63 = load ptr, ptr %24, align 8, !tbaa !4
  %64 = load ptr, ptr %25, align 8, !tbaa !4
  %65 = call ptr @l_Lean_Meta_Grind_Arith_Cutsat_propagateNatLe(ptr noundef %54, i8 noundef zeroext %55, ptr noundef %56, ptr noundef %57, ptr noundef %58, ptr noundef %59, ptr noundef %60, ptr noundef %61, ptr noundef %62, ptr noundef %63, ptr noundef %64)
  store ptr %65, ptr %30, align 8, !tbaa !4
  %66 = load ptr, ptr %30, align 8, !tbaa !4
  store ptr %66, ptr %13, align 8
  store i32 1, ptr %29, align 4
  call void @llvm.lifetime.end.p0(i64 8, ptr %30) #8
  br label %67

67:                                               ; preds = %53, %39
  call void @llvm.lifetime.end.p0(i64 1, ptr %27) #8
  call void @llvm.lifetime.end.p0(i64 8, ptr %26) #8
  %68 = load ptr, ptr %13, align 8
  ret ptr %68
}