; Function Attrs: nounwind uwtable
define ptr @l_Lean_Meta_Grind_Arith_Cutsat_propagateIfSupportedLe___lambda__1(ptr noundef %0, i8 noundef zeroext %1, ptr noundef %2, ptr noundef %3, ptr noundef %4, ptr noundef %5, ptr noundef %6, ptr noundef %7, ptr noundef %8, ptr noundef %9, ptr noundef %10, ptr noundef %11) local_unnamed_addr #0 {
  %13 = load ptr, ptr @l_Lean_Meta_Grind_Arith_Cutsat_propagateIfSupportedLe___lambda__1___closed__2, align 8, !tbaa !4
  %14 = tail call zeroext i8 @l_Lean_Expr_isConstOf(ptr noundef %2, ptr noundef %13) #4
  %15 = icmp eq i8 %14, 0
  br i1 %15, label %16, label %18

16:                                               ; preds = %12
  %17 = tail call ptr @l_Lean_Meta_Grind_Arith_Cutsat_propagateIntLe(ptr noundef %0, i8 noundef zeroext %1, ptr noundef %3, ptr noundef %4, ptr noundef %5, ptr noundef %6, ptr noundef %7, ptr noundef %8, ptr noundef %9, ptr noundef %10, ptr noundef %11)
  br label %20

18:                                               ; preds = %12
  %19 = tail call ptr @l_Lean_Meta_Grind_Arith_Cutsat_propagateNatLe(ptr noundef %0, i8 noundef zeroext %1, ptr noundef %3, ptr noundef %4, ptr noundef %5, ptr noundef %6, ptr noundef %7, ptr noundef %8, ptr noundef %9, ptr noundef %10, ptr noundef %11)
  br label %20

20:                                               ; preds = %18, %16
  %.0 = phi ptr [ %17, %16 ], [ %19, %18 ]
  ret ptr %.0
}